; Function Attrs: mustprogress nofree norecurse nosync nounwind willreturn memory(argmem: readwrite) uwtable
define noundef nonnull align 8 dereferenceable(128) ptr @_ZN32pxrInternal_v0_24__pxrReserved__10GfMatrix4d13SetRotateOnlyERKNS_10GfMatrix3dE(ptr noundef nonnull returned writeonly align 8 dereferenceable(128) %0, ptr nocapture noundef nonnull readonly align 8 dereferenceable(72) %1) local_unnamed_addr #2 align 2 {
  %3 = load double, ptr %1, align 8
  store double %3, ptr %0, align 8
  %4 = getelementptr inbounds i8, ptr %1, i64 8
  %5 = load double, ptr %4, align 8
  %6 = getelementptr inbounds i8, ptr %0, i64 8
  store double %5, ptr %6, align 8
  %7 = getelementptr inbounds i8, ptr %1, i64 16
  %8 = load double, ptr %7, align 8
  %9 = getelementptr inbounds i8, ptr %0, i64 16
  store double %8, ptr %9, align 8
  %10 = getelementptr inbounds i8, ptr %1, i64 24
  %11 = load double, ptr %10, align 8
  %12 = getelementptr inbounds i8, ptr %0, i64 32
  store double %11, ptr %12, align 8
  %13 = getelementptr inbounds i8, ptr %1, i64 32
  %14 = load double, ptr %13, align 8
  %15 = getelementptr inbounds i8, ptr %0, i64 40
  store double %14, ptr %15, align 8
  %16 = getelementptr inbounds i8, ptr %1, i64 40
  %17 = load double, ptr %16, align 8
  %18 = getelementptr inbounds i8, ptr %0, i64 48
  store double %17, ptr %18, align 8
  %19 = getelementptr inbounds i8, ptr %1, i64 48
  %20 = load double, ptr %19, align 8
  %21 = getelementptr inbounds i8, ptr %0, i64 64
  store double %20, ptr %21, align 8
  %22 = getelementptr inbounds i8, ptr %1, i64 56
  %23 = load double, ptr %22, align 8
  %24 = getelementptr inbounds i8, ptr %0, i64 72
  store double %23, ptr %24, align 8
  %25 = getelementptr inbounds i8, ptr %1, i64 64
  %26 = load double, ptr %25, align 8
  %27 = getelementptr inbounds i8, ptr %0, i64 80
  store double %26, ptr %27, align 8
  ret ptr %0
}